target datalayout = "e-m:e-p270:32:32-p271:32:32-p272:64:64-i64:64-i128:128-f80:128-n8:16:32:64-S128"
target triple = "x86_64-pc-linux-gnu"

%struct.SDL_GPUDevice = type { ptr, ptr, ptr, ptr, ptr, ptr, ptr, ptr, ptr, ptr, ptr, ptr, ptr, ptr, ptr, ptr, ptr, ptr, ptr, ptr, ptr, ptr, ptr, ptr, ptr, ptr, ptr, ptr, ptr, ptr, ptr, ptr, ptr, ptr, ptr, ptr, ptr, ptr, ptr, ptr, ptr, ptr, ptr, ptr, ptr, ptr, ptr, ptr, ptr, ptr, ptr, ptr, ptr, ptr, ptr, ptr, ptr, ptr, ptr, ptr, ptr, ptr, ptr, ptr, ptr, ptr, ptr, ptr, ptr, ptr, ptr, ptr, ptr, ptr, ptr, ptr, ptr, ptr, ptr, ptr, ptr, ptr, ptr, ptr, ptr, i32, i8 }
%struct.CommandBufferCommonHeader = type { ptr, %struct.RenderPass, i8, %struct.Pass, i8, %struct.Pass, i8, i8, i8 }
%struct.RenderPass = type { ptr, i8, [4 x ptr], i32, ptr }
%struct.Pass = type { ptr, i8 }

@.str.4 = private unnamed_addr constant [26 x i8] c"Parameter '%s' is invalid\00", align 1
@.str.8 = private unnamed_addr constant [103 x i8] c"generated/home/dtcxzyw/WorkSpace/Projects/compilers/llvm-opt-benchmark/bench/sdl/SDL/src/gpu/SDL_gpu.c\00", align 1
@.str.179 = private unnamed_addr constant [15 x i8] c"command_buffer\00", align 1
@.str.352 = private unnamed_addr constant [7 x i8] c"window\00", align 1
@.str.361 = private unnamed_addr constant [18 x i8] c"swapchain_texture\00", align 1
@SDL_AcquireGPUSwapchainTexture_REAL.sdl_assert_data = internal global { i8, [3 x i8], i32, ptr, ptr, i32, [4 x i8], ptr, ptr } { i8 0, [3 x i8] zeroinitializer, i32 0, ptr @.str.181, ptr null, i32 0, [4 x i8] zeroinitializer, ptr null, ptr null }, align 8
@__func__.SDL_AcquireGPUSwapchainTexture_REAL = private unnamed_addr constant [36 x i8] c"SDL_AcquireGPUSwapchainTexture_REAL\00", align 1
@SDL_AcquireGPUSwapchainTexture_REAL.sdl_assert_data.363 = internal global { i8, [3 x i8], i32, ptr, ptr, i32, [4 x i8], ptr, ptr } { i8 0, [3 x i8] zeroinitializer, i32 0, ptr @.str.364, ptr null, i32 0, [4 x i8] zeroinitializer, ptr null, ptr null }, align 8

; Function Attrs: nounwind uwtable
define hidden zeroext i1 @SDL_AcquireGPUSwapchainTexture_REAL(ptr noundef %0, ptr noundef %1, ptr noundef %2, ptr noundef %3, ptr noundef %4) #0 {
  %6 = alloca i1, align 1
  %7 = alloca ptr, align 8
  %8 = alloca ptr, align 8
  %9 = alloca ptr, align 8
  %10 = alloca ptr, align 8
  %11 = alloca ptr, align 8
  %12 = alloca ptr, align 8
  %13 = alloca i32, align 4
  %14 = alloca i32, align 4
  %15 = alloca i32, align 4
  %16 = alloca i8, align 1
  store ptr %0, ptr %7, align 8
  store ptr %1, ptr %8, align 8
  store ptr %2, ptr %9, align 8
  store ptr %3, ptr %10, align 8
  store ptr %4, ptr %11, align 8
  call void @llvm.lifetime.start.p0(i64 8, ptr %12) #6
  %17 = load ptr, ptr %7, align 8
  store ptr %17, ptr %12, align 8
  %18 = load ptr, ptr %7, align 8
  %19 = icmp eq ptr %18, null
  br i1 %19, label %20, label %22

20:                                               ; preds = %5
  %21 = call zeroext i1 (ptr, ...) @SDL_SetError_REAL(ptr noundef @.str.4, ptr noundef @.str.179)
  store i1 %21, ptr %6, align 1
  store i32 1, ptr %13, align 4
  br label %123

22:                                               ; preds = %5
  %23 = load ptr, ptr %8, align 8
  %24 = icmp eq ptr %23, null
  br i1 %24, label %25, label %27

25:                                               ; preds = %22
  %26 = call zeroext i1 (ptr, ...) @SDL_SetError_REAL(ptr noundef @.str.4, ptr noundef @.str.352)
  store i1 %26, ptr %6, align 1
  store i32 1, ptr %13, align 4
  br label %123

27:                                               ; preds = %22
  %28 = load ptr, ptr %9, align 8
  %29 = icmp eq ptr %28, null
  br i1 %29, label %30, label %32

30:                                               ; preds = %27
  %31 = call zeroext i1 (ptr, ...) @SDL_SetError_REAL(ptr noundef @.str.4, ptr noundef @.str.361)
  store i1 %31, ptr %6, align 1
  store i32 1, ptr %13, align 4
  br label %123

32:                                               ; preds = %27
  %33 = load ptr, ptr %7, align 8
  %34 = getelementptr inbounds nuw %struct.CommandBufferCommonHeader, ptr %33, i32 0, i32 0
  %35 = load ptr, ptr %34, align 8
  %36 = getelementptr inbounds nuw %struct.SDL_GPUDevice, ptr %35, i32 0, i32 86
  %37 = load i8, ptr %36, align 4, !range !5, !noundef !6
  %38 = trunc i8 %37 to i1
  br i1 %38, label %39, label %101

39:                                               ; preds = %32
  %40 = load ptr, ptr %7, align 8
  %41 = getelementptr inbounds nuw %struct.CommandBufferCommonHeader, ptr %40, i32 0, i32 7
  %42 = load i8, ptr %41, align 1, !range !5, !noundef !6
  %43 = trunc i8 %42 to i1
  br i1 %43, label %44, label %63

44:                                               ; preds = %39
  br label %45

45:                                               ; preds = %44
  br label %46

46:                                               ; preds = %58, %45
  br label %47

47:                                               ; preds = %46
  call void @llvm.lifetime.start.p0(i64 4, ptr %14) #6
  %48 = call i32 @SDL_ReportAssertion_REAL(ptr noundef @SDL_AcquireGPUSwapchainTexture_REAL.sdl_assert_data, ptr noundef @__func__.SDL_AcquireGPUSwapchainTexture_REAL, ptr noundef @.str.8, i32 noundef 2963)
  store i32 %48, ptr %14, align 4
  %49 = load i32, ptr %14, align 4
  %50 = icmp eq i32 %49, 0
  br i1 %50, label %51, label %52

51:                                               ; preds = %47
  store i32 4, ptr %13, align 4
  br label %58

52:                                               ; preds = %47
  %53 = load i32, ptr %14, align 4
  %54 = icmp eq i32 %53, 1
  br i1 %54, label %55, label %56

55:                                               ; preds = %52
  call void @llvm.debugtrap()
  br label %56

56:                                               ; preds = %55, %52
  br label %57

57:                                               ; preds = %56
  store i32 5, ptr %13, align 4
  br label %58

58:                                               ; preds = %57, %51
  call void @llvm.lifetime.end.p0(i64 4, ptr %14) #6
  %59 = load i32, ptr %13, align 4
  switch i32 %59, label %125 [
    i32 4, label %46
    i32 5, label %60
  ]

60:                                               ; preds = %58
  br label %61

61:                                               ; preds = %60
  br label %62

62:                                               ; preds = %61
  store i1 false, ptr %6, align 1
  store i32 1, ptr %13, align 4
  br label %123

63:                                               ; preds = %39
  %64 = load ptr, ptr %7, align 8
  %65 = getelementptr inbounds nuw %struct.CommandBufferCommonHeader, ptr %64, i32 0, i32 1
  %66 = getelementptr inbounds nuw %struct.RenderPass, ptr %65, i32 0, i32 1
  %67 = load i8, ptr %66, align 8, !range !5, !noundef !6
  %68 = trunc i8 %67 to i1
  br i1 %68, label %81, label %69

69:                                               ; preds = %63
  %70 = load ptr, ptr %7, align 8
  %71 = getelementptr inbounds nuw %struct.CommandBufferCommonHeader, ptr %70, i32 0, i32 3
  %72 = getelementptr inbounds nuw %struct.Pass, ptr %71, i32 0, i32 1
  %73 = load i8, ptr %72, align 8, !range !5, !noundef !6
  %74 = trunc i8 %73 to i1
  br i1 %74, label %81, label %75

75:                                               ; preds = %69
  %76 = load ptr, ptr %7, align 8
  %77 = getelementptr inbounds nuw %struct.CommandBufferCommonHeader, ptr %76, i32 0, i32 5
  %78 = getelementptr inbounds nuw %struct.Pass, ptr %77, i32 0, i32 1
  %79 = load i8, ptr %78, align 8, !range !5, !noundef !6
  %80 = trunc i8 %79 to i1
  br i1 %80, label %81, label %100

81:                                               ; preds = %75, %69, %63
  br label %82

82:                                               ; preds = %81
  br label %83

83:                                               ; preds = %95, %82
  br label %84

84:                                               ; preds = %83
  call void @llvm.lifetime.start.p0(i64 4, ptr %15) #6
  %85 = call i32 @SDL_ReportAssertion_REAL(ptr noundef @SDL_AcquireGPUSwapchainTexture_REAL.sdl_assert_data.363, ptr noundef @__func__.SDL_AcquireGPUSwapchainTexture_REAL, ptr noundef @.str.8, i32 noundef 2964)
  store i32 %85, ptr %15, align 4
  %86 = load i32, ptr %15, align 4
  %87 = icmp eq i32 %86, 0
  br i1 %87, label %88, label %89

88:                                               ; preds = %84
  store i32 8, ptr %13, align 4
  br label %95

89:                                               ; preds = %84
  %90 = load i32, ptr %15, align 4
  %91 = icmp eq i32 %90, 1
  br i1 %91, label %92, label %93

92:                                               ; preds = %89
  call void @llvm.debugtrap()
  br label %93

93:                                               ; preds = %92, %89
  br label %94

94:                                               ; preds = %93
  store i32 9, ptr %13, align 4
  br label %95

95:                                               ; preds = %94, %88
  call void @llvm.lifetime.end.p0(i64 4, ptr %15) #6
  %96 = load i32, ptr %13, align 4
  switch i32 %96, label %125 [
    i32 8, label %83
    i32 9, label %97
  ]

97:                                               ; preds = %95
  br label %98

98:                                               ; preds = %97
  br label %99

99:                                               ; preds = %98
  store i1 false, ptr %6, align 1
  store i32 1, ptr %13, align 4
  br label %123

100:                                              ; preds = %75
  br label %101

101:                                              ; preds = %100, %32
  call void @llvm.lifetime.start.p0(i64 1, ptr %16) #6
  %102 = load ptr, ptr %7, align 8
  %103 = getelementptr inbounds nuw %struct.CommandBufferCommonHeader, ptr %102, i32 0, i32 0
  %104 = load ptr, ptr %103, align 8
  %105 = getelementptr inbounds nuw %struct.SDL_GPUDevice, ptr %104, i32 0, i32 71
  %106 = load ptr, ptr %105, align 8
  %107 = load ptr, ptr %7, align 8
  %108 = load ptr, ptr %8, align 8
  %109 = load ptr, ptr %9, align 8
  %110 = load ptr, ptr %10, align 8
  %111 = load ptr, ptr %11, align 8
  %112 = call zeroext i1 %106(ptr noundef %107, ptr noundef %108, ptr noundef %109, ptr noundef %110, ptr noundef %111)
  %113 = zext i1 %112 to i8
  store i8 %113, ptr %16, align 1
  %114 = load ptr, ptr %9, align 8
  %115 = load ptr, ptr %114, align 8
  %116 = icmp ne ptr %115, null
  br i1 %116, label %117, label %120

117:                                              ; preds = %101
  %118 = load ptr, ptr %12, align 8
  %119 = getelementptr inbounds nuw %struct.CommandBufferCommonHeader, ptr %118, i32 0, i32 6
  store i8 1, ptr %119, align 8
  br label %120

120:                                              ; preds = %117, %101
  %121 = load i8, ptr %16, align 1, !range !5, !noundef !6
  %122 = trunc i8 %121 to i1
  store i1 %122, ptr %6, align 1
  store i32 1, ptr %13, align 4
  call void @llvm.lifetime.end.p0(i64 1, ptr %16) #6
  br label %123

123:                                              ; preds = %120, %99, %62, %30, %25, %20
  call void @llvm.lifetime.end.p0(i64 8, ptr %12) #6
  %124 = load i1, ptr %6, align 1
  ret i1 %124

125:                                              ; preds = %95, %58
  unreachable
}