; Function Attrs: nounwind uwtable
define hidden zeroext i1 @SDL_AcquireGPUSwapchainTexture_REAL(ptr noundef %0, ptr noundef %1, ptr noundef %2, ptr noundef %3, ptr noundef %4) local_unnamed_addr #0 {
  %6 = icmp eq ptr %0, null
  br i1 %6, label %7, label %9

7:                                                ; preds = %5
  %8 = tail call zeroext i1 (ptr, ...) @SDL_SetError_REAL(ptr noundef nonnull @.str.4, ptr noundef nonnull @.str.179) #7
  br label %.thread

9:                                                ; preds = %5
  %10 = icmp eq ptr %1, null
  br i1 %10, label %11, label %13

11:                                               ; preds = %9
  %12 = tail call zeroext i1 (ptr, ...) @SDL_SetError_REAL(ptr noundef nonnull @.str.4, ptr noundef nonnull @.str.352) #7
  br label %.thread

13:                                               ; preds = %9
  %14 = icmp eq ptr %2, null
  br i1 %14, label %15, label %17

15:                                               ; preds = %13
  %16 = tail call zeroext i1 (ptr, ...) @SDL_SetError_REAL(ptr noundef nonnull @.str.4, ptr noundef nonnull @.str.361) #7
  br label %.thread

17:                                               ; preds = %13
  %18 = load ptr, ptr %0, align 8
  %19 = getelementptr inbounds nuw i8, ptr %18, i64 684
  %20 = load i8, ptr %19, align 4, !range !5, !noundef !6
  %21 = trunc nuw i8 %20 to i1
  br i1 %21, label %22, label %43

22:                                               ; preds = %17
  %23 = getelementptr inbounds nuw i8, ptr %0, i64 121
  %24 = load i8, ptr %23, align 1, !range !5, !noundef !6
  %25 = trunc nuw i8 %24 to i1
  br i1 %25, label %.preheader, label %28

.preheader:                                       ; preds = %22, %.preheader
  %26 = tail call i32 @SDL_ReportAssertion_REAL(ptr noundef nonnull @SDL_AcquireGPUSwapchainTexture_REAL.sdl_assert_data, ptr noundef nonnull @__func__.SDL_AcquireGPUSwapchainTexture_REAL, ptr noundef nonnull @.str.8, i32 noundef 2963) #7
  switch i32 %26, label %.thread [
    i32 0, label %.preheader
    i32 1, label %27
  ]

27:                                               ; preds = %.preheader
  tail call void @llvm.debugtrap()
  br label %.thread

28:                                               ; preds = %22
  %29 = getelementptr inbounds nuw i8, ptr %0, i64 16
  %30 = load i8, ptr %29, align 8, !range !5, !noundef !6
  %31 = trunc nuw i8 %30 to i1
  br i1 %31, label %.preheader43, label %32

32:                                               ; preds = %28
  %33 = getelementptr inbounds nuw i8, ptr %0, i64 88
  %34 = load i8, ptr %33, align 8, !range !5, !noundef !6
  %35 = trunc nuw i8 %34 to i1
  br i1 %35, label %.preheader43, label %36

36:                                               ; preds = %32
  %37 = getelementptr inbounds nuw i8, ptr %0, i64 112
  %38 = load i8, ptr %37, align 8, !range !5, !noundef !6
  %39 = trunc nuw i8 %38 to i1
  br i1 %39, label %.preheader43, label %43

.preheader43:                                     ; preds = %28, %32, %36
  br label %40

40:                                               ; preds = %.preheader43, %40
  %41 = tail call i32 @SDL_ReportAssertion_REAL(ptr noundef nonnull @SDL_AcquireGPUSwapchainTexture_REAL.sdl_assert_data.363, ptr noundef nonnull @__func__.SDL_AcquireGPUSwapchainTexture_REAL, ptr noundef nonnull @.str.8, i32 noundef 2964) #7
  switch i32 %41, label %.thread [
    i32 0, label %40
    i32 1, label %42
  ]

42:                                               ; preds = %40
  tail call void @llvm.debugtrap()
  br label %.thread

43:                                               ; preds = %36, %17
  %44 = getelementptr inbounds nuw i8, ptr %18, i64 568
  %45 = load ptr, ptr %44, align 8
  %46 = tail call zeroext i1 %45(ptr noundef nonnull %0, ptr noundef nonnull %1, ptr noundef nonnull %2, ptr noundef %3, ptr noundef %4) #7
  %47 = load ptr, ptr %2, align 8
  %.not = icmp eq ptr %47, null
  br i1 %.not, label %.thread, label %48

48:                                               ; preds = %43
  %49 = getelementptr inbounds nuw i8, ptr %0, i64 120
  store i8 1, ptr %49, align 8
  br label %.thread

.thread:                                          ; preds = %40, %.preheader, %42, %27, %43, %48, %15, %11, %7
  %.0 = phi i1 [ %8, %7 ], [ %12, %11 ], [ %16, %15 ], [ %46, %48 ], [ %46, %43 ], [ false, %27 ], [ false, %42 ], [ false, %.preheader ], [ false, %40 ]
  ret i1 %.0
}